target datalayout = "e-m:e-p270:32:32-p271:32:32-p272:64:64-i64:64-i128:128-f80:128-n8:16:32:64-S128"
target triple = "x86_64-unknown-linux-gnu"

%"class.hermes::parser::detail::JSParserImpl" = type { ptr, ptr, %"class.hermes::parser::JSLexer", ptr, i32, ptr, i32, i8, i8, i8, %"class.llvh::SmallVector.15", i32, i8, i8, ptr, ptr, ptr, ptr, ptr, ptr, ptr, ptr, ptr, ptr, ptr, ptr, ptr, ptr, ptr, ptr, ptr, ptr, ptr, ptr, ptr, ptr, ptr, ptr, ptr, ptr, ptr, ptr, ptr, ptr, ptr, ptr, ptr, ptr, ptr, ptr, ptr, ptr, ptr, ptr, ptr, ptr, ptr, ptr, ptr, ptr, ptr, ptr, ptr, ptr, ptr, ptr, ptr, ptr, ptr, ptr, ptr, ptr, ptr, ptr, ptr, ptr, ptr, ptr, ptr, ptr, ptr, ptr, ptr, ptr, ptr, [122 x ptr] }
%"class.hermes::parser::JSLexer" = type { ptr, ptr, i32, %"class.std::unique_ptr.2", ptr, ptr, i8, i8, i8, i8, [4 x i8], %"class.hermes::parser::Token", %"class.llvh::SMLoc", ptr, ptr, ptr, i8, %"class.llvh::SmallString", %"class.llvh::SmallString", [46 x ptr], %"class.std::vector", %"class.std::vector.10" }
%"class.std::unique_ptr.2" = type { %"struct.std::__uniq_ptr_data.3" }
%"struct.std::__uniq_ptr_data.3" = type { %"class.std::__uniq_ptr_impl.4" }
%"class.std::__uniq_ptr_impl.4" = type { %"class.std::tuple.5" }
%"class.std::tuple.5" = type { %"struct.std::_Tuple_impl.6" }
%"struct.std::_Tuple_impl.6" = type { %"struct.std::_Head_base.9" }
%"struct.std::_Head_base.9" = type { ptr }
%"class.hermes::parser::Token" = type <{ i32, [4 x i8], %"class.llvh::SMRange", double, ptr, ptr, ptr, ptr, i8, [7 x i8] }>
%"class.llvh::SMRange" = type { %"class.llvh::SMLoc", %"class.llvh::SMLoc" }
%"class.llvh::SMLoc" = type { ptr }
%"class.llvh::SmallString" = type { %"class.llvh::SmallVector" }
%"class.llvh::SmallVector" = type { %"class.llvh::SmallVectorImpl", %"struct.llvh::SmallVectorStorage" }
%"class.llvh::SmallVectorImpl" = type { %"class.llvh::SmallVectorTemplateBase" }
%"class.llvh::SmallVectorTemplateBase" = type { %"class.llvh::SmallVectorTemplateCommon" }
%"class.llvh::SmallVectorTemplateCommon" = type { %"class.llvh::SmallVectorBase" }
%"class.llvh::SmallVectorBase" = type { ptr, i32, i32 }
%"struct.llvh::SmallVectorStorage" = type { [256 x %"struct.llvh::AlignedCharArrayUnion"] }
%"struct.llvh::AlignedCharArrayUnion" = type { %"struct.llvh::AlignedCharArray" }
%"struct.llvh::AlignedCharArray" = type { [1 x i8] }
%"class.std::vector" = type { %"struct.std::_Vector_base" }
%"struct.std::_Vector_base" = type { %"struct.std::_Vector_base<hermes::parser::StoredComment, std::allocator<hermes::parser::StoredComment>>::_Vector_impl" }
%"struct.std::_Vector_base<hermes::parser::StoredComment, std::allocator<hermes::parser::StoredComment>>::_Vector_impl" = type { %"struct.std::_Vector_base<hermes::parser::StoredComment, std::allocator<hermes::parser::StoredComment>>::_Vector_impl_data" }
%"struct.std::_Vector_base<hermes::parser::StoredComment, std::allocator<hermes::parser::StoredComment>>::_Vector_impl_data" = type { ptr, ptr, ptr }
%"class.std::vector.10" = type { %"struct.std::_Vector_base.11" }
%"struct.std::_Vector_base.11" = type { %"struct.std::_Vector_base<hermes::parser::StoredToken, std::allocator<hermes::parser::StoredToken>>::_Vector_impl" }
%"struct.std::_Vector_base<hermes::parser::StoredToken, std::allocator<hermes::parser::StoredToken>>::_Vector_impl" = type { %"struct.std::_Vector_base<hermes::parser::StoredToken, std::allocator<hermes::parser::StoredToken>>::_Vector_impl_data" }
%"struct.std::_Vector_base<hermes::parser::StoredToken, std::allocator<hermes::parser::StoredToken>>::_Vector_impl_data" = type { ptr, ptr, ptr }
%"class.llvh::SmallVector.15" = type { %"class.llvh::SmallVectorImpl.16", %"struct.llvh::SmallVectorStorage.19" }
%"class.llvh::SmallVectorImpl.16" = type { %"class.llvh::SmallVectorTemplateBase.17" }
%"class.llvh::SmallVectorTemplateBase.17" = type { %"class.llvh::SmallVectorTemplateCommon.18" }
%"class.llvh::SmallVectorTemplateCommon.18" = type { %"class.llvh::SmallVectorBase" }
%"struct.llvh::SmallVectorStorage.19" = type { [1 x %"struct.llvh::AlignedCharArrayUnion.20"] }
%"struct.llvh::AlignedCharArrayUnion.20" = type { %"struct.llvh::AlignedCharArray.21" }
%"struct.llvh::AlignedCharArray.21" = type { [8 x i8] }
%"class.llvh::ArrayRef" = type { ptr, i64 }

; Function Attrs: mustprogress nounwind uwtable
define linkonce_odr hidden void @_ZN4llvh8ArrayRefIN6hermes6parser9TokenKindEEC2ERKS3_(ptr noundef nonnull align 8 dereferenceable(16) %this, ptr noundef nonnull align 4 dereferenceable(4) %OneElt) unnamed_addr #0 comdat align 2 {
entry:
  %this.addr = alloca ptr, align 8
  %OneElt.addr = alloca ptr, align 8
  store ptr %this, ptr %this.addr, align 8
  store ptr %OneElt, ptr %OneElt.addr, align 8
  %this1 = load ptr, ptr %this.addr, align 8
  %Data = getelementptr inbounds %"class.llvh::ArrayRef", ptr %this1, i32 0, i32 0
  %0 = load ptr, ptr %OneElt.addr, align 8
  store ptr %0, ptr %Data, align 8
  %Length = getelementptr inbounds %"class.llvh::ArrayRef", ptr %this1, i32 0, i32 1
  store i64 1, ptr %Length, align 8
  ret void
}

; Function Attrs: mustprogress nounwind uwtable
define linkonce_odr hidden void @_ZN6hermes6parser6detail12JSParserImpl13errorExpectedENS0_9TokenKindEPKcS5_N4llvh5SMLocE(ptr noundef nonnull align 8 dereferenceable(2752) %this, i32 noundef %k1, ptr noundef %where, ptr noundef %what, ptr %whatLoc.coerce) #0 comdat align 2 {
entry:
  %whatLoc = alloca %"class.llvh::SMLoc", align 8
  %this.addr = alloca ptr, align 8
  %k1.addr = alloca i32, align 4
  %where.addr = alloca ptr, align 8
  %what.addr = alloca ptr, align 8
  %agg.tmp = alloca %"class.llvh::ArrayRef", align 8
  %agg.tmp2 = alloca %"class.llvh::SMLoc", align 8
  %coerce.dive = getelementptr inbounds %"class.llvh::SMLoc", ptr %whatLoc, i32 0, i32 0
  store ptr %whatLoc.coerce, ptr %coerce.dive, align 8
  store ptr %this, ptr %this.addr, align 8
  store i32 %k1, ptr %k1.addr, align 4
  store ptr %where, ptr %where.addr, align 8
  store ptr %what, ptr %what.addr, align 8
  %this1 = load ptr, ptr %this.addr, align 8
  call void @_ZN4llvh8ArrayRefIN6hermes6parser9TokenKindEEC2ERKS3_(ptr noundef nonnull align 8 dereferenceable(16) %agg.tmp, ptr noundef nonnull align 4 dereferenceable(4) %k1.addr)
  %0 = load ptr, ptr %where.addr, align 8
  %1 = load ptr, ptr %what.addr, align 8
  call void @llvm.memcpy.p0.p0.i64(ptr align 8 %agg.tmp2, ptr align 8 %whatLoc, i64 8, i1 false)
  %2 = getelementptr inbounds { ptr, i64 }, ptr %agg.tmp, i32 0, i32 0
  %3 = load ptr, ptr %2, align 8
  %4 = getelementptr inbounds { ptr, i64 }, ptr %agg.tmp, i32 0, i32 1
  %5 = load i64, ptr %4, align 8
  %coerce.dive3 = getelementptr inbounds %"class.llvh::SMLoc", ptr %agg.tmp2, i32 0, i32 0
  %6 = load ptr, ptr %coerce.dive3, align 8
  call void @_ZN6hermes6parser6detail12JSParserImpl13errorExpectedEN4llvh8ArrayRefINS0_9TokenKindEEEPKcS8_NS3_5SMLocE(ptr noundef nonnull align 8 dereferenceable(2752) %this1, ptr %3, i64 %5, ptr noundef %0, ptr noundef %1, ptr %6)
  ret void
}

; Function Attrs: mustprogress nounwind uwtable
define linkonce_odr hidden noundef i32 @_ZNK6hermes6parser5Token7getKindEv(ptr noundef nonnull align 8 dereferenceable(65) %this) #0 comdat align 2 {
entry:
  %this.addr = alloca ptr, align 8
  store ptr %this, ptr %this.addr, align 8
  %this1 = load ptr, ptr %this.addr, align 8
  %kind_ = getelementptr inbounds %"class.hermes::parser::Token", ptr %this1, i32 0, i32 0
  %0 = load i32, ptr %kind_, align 8
  ret i32 %0
}

; Function Attrs: mustprogress nounwind uwtable
define hidden noundef zeroext i1 @_ZN6hermes6parser6detail12JSParserImpl4needENS0_9TokenKindEPKcS5_N4llvh5SMLocE(ptr noundef nonnull align 8 dereferenceable(2752) %this, i32 noundef %kind, ptr noundef %where, ptr noundef %what, ptr %whatLoc.coerce) #0 align 2 {
entry:
  %retval = alloca i1, align 1
  %whatLoc = alloca %"class.llvh::SMLoc", align 8
  %this.addr = alloca ptr, align 8
  %kind.addr = alloca i32, align 4
  %where.addr = alloca ptr, align 8
  %what.addr = alloca ptr, align 8
  %agg.tmp = alloca %"class.llvh::SMLoc", align 8
  %coerce.dive = getelementptr inbounds %"class.llvh::SMLoc", ptr %whatLoc, i32 0, i32 0
  store ptr %whatLoc.coerce, ptr %coerce.dive, align 8
  store ptr %this, ptr %this.addr, align 8
  store i32 %kind, ptr %kind.addr, align 4
  store ptr %where, ptr %where.addr, align 8
  store ptr %what, ptr %what.addr, align 8
  %this1 = load ptr, ptr %this.addr, align 8
  %tok_ = getelementptr inbounds %"class.hermes::parser::detail::JSParserImpl", ptr %this1, i32 0, i32 3
  %0 = load ptr, ptr %tok_, align 8
  %call = call noundef i32 @_ZNK6hermes6parser5Token7getKindEv(ptr noundef nonnull align 8 dereferenceable(65) %0)
  %1 = load i32, ptr %kind.addr, align 4
  %cmp = icmp eq i32 %call, %1
  br i1 %cmp, label %if.then, label %if.end

if.then:                                          ; preds = %entry
  store i1 true, ptr %retval, align 1
  br label %return

if.end:                                           ; preds = %entry
  %2 = load i32, ptr %kind.addr, align 4
  %3 = load ptr, ptr %where.addr, align 8
  %4 = load ptr, ptr %what.addr, align 8
  call void @llvm.memcpy.p0.p0.i64(ptr align 8 %agg.tmp, ptr align 8 %whatLoc, i64 8, i1 false)
  %coerce.dive2 = getelementptr inbounds %"class.llvh::SMLoc", ptr %agg.tmp, i32 0, i32 0
  %5 = load ptr, ptr %coerce.dive2, align 8
  call void @_ZN6hermes6parser6detail12JSParserImpl13errorExpectedENS0_9TokenKindEPKcS5_N4llvh5SMLocE(ptr noundef nonnull align 8 dereferenceable(2752) %this1, i32 noundef %2, ptr noundef %3, ptr noundef %4, ptr %5)
  store i1 false, ptr %retval, align 1
  br label %return

return:                                           ; preds = %if.end, %if.then
  %6 = load i1, ptr %retval, align 1
  ret i1 %6
}