; Function Attrs: mustprogress nounwind uwtable
define hidden noundef zeroext i1 @_ZN6hermes6parser6detail12JSParserImpl4needENS0_9TokenKindEPKcS5_N4llvh5SMLocE(ptr nocapture noundef nonnull readonly align 8 dereferenceable(2752) %this, i32 noundef %kind, ptr noundef %where, ptr noundef %what, ptr %whatLoc.coerce) local_unnamed_addr #0 align 2 {
entry:
  %k1.addr.i = alloca i32, align 4
  %tok_ = getelementptr inbounds i8, ptr %this, i64 1144
  %0 = load ptr, ptr %tok_, align 8
  %1 = load i32, ptr %0, align 8
  %cmp = icmp eq i32 %1, %kind
  br i1 %cmp, label %return, label %if.end

if.end:                                           ; preds = %entry
  call void @llvm.lifetime.start.p0(i64 4, ptr nonnull %k1.addr.i)
  store i32 %kind, ptr %k1.addr.i, align 4
  call void @_ZN6hermes6parser6detail12JSParserImpl13errorExpectedEN4llvh8ArrayRefINS0_9TokenKindEEEPKcS8_NS3_5SMLocE(ptr noundef nonnull align 8 dereferenceable(2752) %this, ptr nonnull %k1.addr.i, i64 1, ptr noundef %where, ptr noundef %what, ptr %whatLoc.coerce)
  call void @llvm.lifetime.end.p0(i64 4, ptr nonnull %k1.addr.i)
  br label %return

return:                                           ; preds = %entry, %if.end
  ret i1 %cmp
}